target datalayout = "e-m:e-p270:32:32-p271:32:32-p272:64:64-i64:64-f80:128-n8:16:32:64-S128"
target triple = "x86_64-pc-linux-gnu"

@.str = private unnamed_addr constant [9 x i8] c"%d %s %d\00", align 1
@.str.1 = private unnamed_addr constant [3 x i8] c"0\0A\00", align 1
@.str.2 = private unnamed_addr constant [3 x i8] c"%s\00", align 1

; Function Attrs: noinline nounwind uwtable
define dso_local i32 @main() #0 {
  %1 = alloca i32, align 4
  %2 = alloca i32, align 4
  %3 = alloca i32, align 4
  %4 = alloca i32, align 4
  %5 = alloca [50 x i8], align 16
  %6 = alloca [50 x i8], align 16
  %7 = alloca [50 x i8], align 16
  %8 = alloca i32, align 4
  %9 = alloca i32, align 4
  %10 = alloca i32, align 4
  %11 = alloca i32, align 4
  %12 = alloca i32, align 4
  store i32 0, i32* %1, align 4
  %13 = getelementptr inbounds [50 x i8], [50 x i8]* %5, i64 0, i64 0
  %14 = call i32 (i8*, ...) @__isoc99_scanf(i8* getelementptr inbounds ([9 x i8], [9 x i8]* @.str, i64 0, i64 0), i32* %2, i8* %13, i32* %3)
  %15 = getelementptr inbounds [50 x i8], [50 x i8]* %5, i64 0, i64 0
  %16 = load i8, i8* %15, align 16
  %17 = sext i8 %16 to i32
  %18 = icmp eq i32 %17, 48
  br i1 %18, label %19, label %21

19:                                               ; preds = %0
  %20 = call i32 (i8*, ...) @printf(i8* getelementptr inbounds ([3 x i8], [3 x i8]* @.str.1, i64 0, i64 0))
  br label %208

21:                                               ; preds = %0
  %22 = getelementptr inbounds [50 x i8], [50 x i8]* %5, i64 0, i64 0
  %23 = call i64 @strlen(i8* %22) #3
  %24 = trunc i64 %23 to i32
  store i32 %24, i32* %4, align 4
  store i32 0, i32* %8, align 4
  store i32 0, i32* %9, align 4
  store i32 0, i32* %10, align 4
  br label %25

25:                                               ; preds = %118, %21
  %26 = load i32, i32* %10, align 4
  %27 = load i32, i32* %4, align 4
  %28 = icmp slt i32 %26, %27
  br i1 %28, label %29, label %121

29:                                               ; preds = %25
  %30 = load i32, i32* %10, align 4
  %31 = sext i32 %30 to i64
  %32 = getelementptr inbounds [50 x i8], [50 x i8]* %5, i64 0, i64 %31
  %33 = load i8, i8* %32, align 1
  %34 = sext i8 %33 to i32
  %35 = icmp sge i32 %34, 97
  br i1 %35, label %36, label %55

36:                                               ; preds = %29
  %37 = load i32, i32* %10, align 4
  %38 = sext i32 %37 to i64
  %39 = getelementptr inbounds [50 x i8], [50 x i8]* %5, i64 0, i64 %38
  %40 = load i8, i8* %39, align 1
  %41 = sext i8 %40 to i32
  %42 = icmp sle i32 %41, 122
  br i1 %42, label %43, label %55

43:                                               ; preds = %36
  %44 = load i32, i32* %10, align 4
  %45 = sext i32 %44 to i64
  %46 = getelementptr inbounds [50 x i8], [50 x i8]* %5, i64 0, i64 %45
  %47 = load i8, i8* %46, align 1
  %48 = sext i8 %47 to i32
  %49 = sub nsw i32 %48, 97
  %50 = add nsw i32 %49, 10
  %51 = trunc i32 %50 to i8
  %52 = load i32, i32* %10, align 4
  %53 = sext i32 %52 to i64
  %54 = getelementptr inbounds [50 x i8], [50 x i8]* %5, i64 0, i64 %53
  store i8 %51, i8* %54, align 1
  br label %108

55:                                               ; preds = %36, %29
  %56 = load i32, i32* %10, align 4
  %57 = sext i32 %56 to i64
  %58 = getelementptr inbounds [50 x i8], [50 x i8]* %5, i64 0, i64 %57
  %59 = load i8, i8* %58, align 1
  %60 = sext i8 %59 to i32
  %61 = icmp sge i32 %60, 65
  br i1 %61, label %62, label %81

62:                                               ; preds = %55
  %63 = load i32, i32* %10, align 4
  %64 = sext i32 %63 to i64
  %65 = getelementptr inbounds [50 x i8], [50 x i8]* %5, i64 0, i64 %64
  %66 = load i8, i8* %65, align 1
  %67 = sext i8 %66 to i32
  %68 = icmp sle i32 %67, 90
  br i1 %68, label %69, label %81

69:                                               ; preds = %62
  %70 = load i32, i32* %10, align 4
  %71 = sext i32 %70 to i64
  %72 = getelementptr inbounds [50 x i8], [50 x i8]* %5, i64 0, i64 %71
  %73 = load i8, i8* %72, align 1
  %74 = sext i8 %73 to i32
  %75 = sub nsw i32 %74, 65
  %76 = add nsw i32 %75, 10
  %77 = trunc i32 %76 to i8
  %78 = load i32, i32* %10, align 4
  %79 = sext i32 %78 to i64
  %80 = getelementptr inbounds [50 x i8], [50 x i8]* %5, i64 0, i64 %79
  store i8 %77, i8* %80, align 1
  br label %107

81:                                               ; preds = %62, %55
  %82 = load i32, i32* %10, align 4
  %83 = sext i32 %82 to i64
  %84 = getelementptr inbounds [50 x i8], [50 x i8]* %5, i64 0, i64 %83
  %85 = load i8, i8* %84, align 1
  %86 = sext i8 %85 to i32
  %87 = icmp sge i32 %86, 48
  br i1 %87, label %88, label %106

88:                                               ; preds = %81
  %89 = load i32, i32* %10, align 4
  %90 = sext i32 %89 to i64
  %91 = getelementptr inbounds [50 x i8], [50 x i8]* %5, i64 0, i64 %90
  %92 = load i8, i8* %91, align 1
  %93 = sext i8 %92 to i32
  %94 = icmp sle i32 %93, 57
  br i1 %94, label %95, label %106

95:                                               ; preds = %88
  %96 = load i32, i32* %10, align 4
  %97 = sext i32 %96 to i64
  %98 = getelementptr inbounds [50 x i8], [50 x i8]* %5, i64 0, i64 %97
  %99 = load i8, i8* %98, align 1
  %100 = sext i8 %99 to i32
  %101 = sub nsw i32 %100, 48
  %102 = trunc i32 %101 to i8
  %103 = load i32, i32* %10, align 4
  %104 = sext i32 %103 to i64
  %105 = getelementptr inbounds [50 x i8], [50 x i8]* %5, i64 0, i64 %104
  store i8 %102, i8* %105, align 1
  br label %106

106:                                              ; preds = %95, %88, %81
  br label %107

107:                                              ; preds = %106, %69
  br label %108

108:                                              ; preds = %107, %43
  %109 = load i32, i32* %8, align 4
  %110 = load i32, i32* %2, align 4
  %111 = mul nsw i32 %109, %110
  %112 = load i32, i32* %10, align 4
  %113 = sext i32 %112 to i64
  %114 = getelementptr inbounds [50 x i8], [50 x i8]* %5, i64 0, i64 %113
  %115 = load i8, i8* %114, align 1
  %116 = sext i8 %115 to i32
  %117 = add nsw i32 %111, %116
  store i32 %117, i32* %8, align 4
  br label %118

118:                                              ; preds = %108
  %119 = load i32, i32* %10, align 4
  %120 = add nsw i32 %119, 1
  store i32 %120, i32* %10, align 4
  br label %25

121:                                              ; preds = %25
  br label %122

122:                                              ; preds = %136, %121
  %123 = load i32, i32* %8, align 4
  %124 = icmp ne i32 %123, 0
  br i1 %124, label %125, label %139

125:                                              ; preds = %122
  %126 = load i32, i32* %8, align 4
  %127 = load i32, i32* %3, align 4
  %128 = srem i32 %126, %127
  %129 = trunc i32 %128 to i8
  %130 = load i32, i32* %9, align 4
  %131 = sext i32 %130 to i64
  %132 = getelementptr inbounds [50 x i8], [50 x i8]* %6, i64 0, i64 %131
  store i8 %129, i8* %132, align 1
  %133 = load i32, i32* %8, align 4
  %134 = load i32, i32* %3, align 4
  %135 = sdiv i32 %133, %134
  store i32 %135, i32* %8, align 4
  br label %136

136:                                              ; preds = %125
  %137 = load i32, i32* %9, align 4
  %138 = add nsw i32 %137, 1
  store i32 %138, i32* %9, align 4
  br label %122

139:                                              ; preds = %122
  %140 = load i32, i32* %9, align 4
  %141 = sext i32 %140 to i64
  %142 = getelementptr inbounds [50 x i8], [50 x i8]* %6, i64 0, i64 %141
  store i8 0, i8* %142, align 1
  store i32 0, i32* %11, align 4
  br label %143

143:                                              ; preds = %158, %139
  %144 = load i32, i32* %11, align 4
  %145 = load i32, i32* %9, align 4
  %146 = icmp slt i32 %144, %145
  br i1 %146, label %147, label %161

147:                                              ; preds = %143
  %148 = load i32, i32* %9, align 4
  %149 = load i32, i32* %11, align 4
  %150 = sub nsw i32 %148, %149
  %151 = sub nsw i32 %150, 1
  %152 = sext i32 %151 to i64
  %153 = getelementptr inbounds [50 x i8], [50 x i8]* %6, i64 0, i64 %152
  %154 = load i8, i8* %153, align 1
  %155 = load i32, i32* %11, align 4
  %156 = sext i32 %155 to i64
  %157 = getelementptr inbounds [50 x i8], [50 x i8]* %7, i64 0, i64 %156
  store i8 %154, i8* %157, align 1
  br label %158

158:                                              ; preds = %147
  %159 = load i32, i32* %11, align 4
  %160 = add nsw i32 %159, 1
  store i32 %160, i32* %11, align 4
  br label %143

161:                                              ; preds = %143
  %162 = load i32, i32* %9, align 4
  %163 = sext i32 %162 to i64
  %164 = getelementptr inbounds [50 x i8], [50 x i8]* %7, i64 0, i64 %163
  store i8 0, i8* %164, align 1
  store i32 0, i32* %12, align 4
  br label %165

165:                                              ; preds = %200, %161
  %166 = load i32, i32* %12, align 4
  %167 = load i32, i32* %9, align 4
  %168 = icmp slt i32 %166, %167
  br i1 %168, label %169, label %203

169:                                              ; preds = %165
  %170 = load i32, i32* %12, align 4
  %171 = sext i32 %170 to i64
  %172 = getelementptr inbounds [50 x i8], [50 x i8]* %7, i64 0, i64 %171
  %173 = load i8, i8* %172, align 1
  %174 = sext i8 %173 to i32
  %175 = icmp sle i32 %174, 9
  br i1 %175, label %176, label %187

176:                                              ; preds = %169
  %177 = load i32, i32* %12, align 4
  %178 = sext i32 %177 to i64
  %179 = getelementptr inbounds [50 x i8], [50 x i8]* %7, i64 0, i64 %178
  %180 = load i8, i8* %179, align 1
  %181 = sext i8 %180 to i32
  %182 = add nsw i32 %181, 48
  %183 = trunc i32 %182 to i8
  %184 = load i32, i32* %12, align 4
  %185 = sext i32 %184 to i64
  %186 = getelementptr inbounds [50 x i8], [50 x i8]* %7, i64 0, i64 %185
  store i8 %183, i8* %186, align 1
  br label %199

187:                                              ; preds = %169
  %188 = load i32, i32* %12, align 4
  %189 = sext i32 %188 to i64
  %190 = getelementptr inbounds [50 x i8], [50 x i8]* %7, i64 0, i64 %189
  %191 = load i8, i8* %190, align 1
  %192 = sext i8 %191 to i32
  %193 = add nsw i32 %192, 65
  %194 = sub nsw i32 %193, 10
  %195 = trunc i32 %194 to i8
  %196 = load i32, i32* %12, align 4
  %197 = sext i32 %196 to i64
  %198 = getelementptr inbounds [50 x i8], [50 x i8]* %7, i64 0, i64 %197
  store i8 %195, i8* %198, align 1
  br label %199

199:                                              ; preds = %187, %176
  br label %200

200:                                              ; preds = %199
  %201 = load i32, i32* %12, align 4
  %202 = add nsw i32 %201, 1
  store i32 %202, i32* %12, align 4
  br label %165

203:                                              ; preds = %165
  %204 = getelementptr inbounds [50 x i8], [50 x i8]* %7, i64 0, i64 0
  %205 = call i32 (i8*, ...) @printf(i8* getelementptr inbounds ([3 x i8], [3 x i8]* @.str.2, i64 0, i64 0), i8* %204)
  %206 = call i32 @getchar()
  %207 = call i32 @getchar()
  br label %208

208:                                              ; preds = %203, %19
  %209 = load i32, i32* %1, align 4
  ret i32 %209
}